; Function Attrs: mustprogress uwtable
define hidden void @_ZN13IlmThread_3_29TaskGroup4Data12waitForEmptyEv(ptr noundef nonnull align 8 dereferenceable(48) %this) local_unnamed_addr #0 align 2 personality ptr @__gxx_personality_v0 {
entry:
  %isEmpty = getelementptr inbounds i8, ptr %this, i64 8
  tail call void @_ZN13IlmThread_3_29Semaphore4waitEv(ptr noundef nonnull align 8 dereferenceable(40) %isEmpty)
  %inFlight = getelementptr inbounds i8, ptr %this, i64 4
  %0 = load atomic i32, ptr %inFlight seq_cst, align 4
  %cmp3 = icmp sgt i32 %0, 0
  br i1 %cmp3, label %while.body, label %while.end

while.body:                                       ; preds = %entry, %if.end
  %count.04 = phi i32 [ %count.1, %if.end ], [ 0, %entry ]
  %inc = add nsw i32 %count.04, 1
  %cmp2 = icmp sgt i32 %count.04, 99
  br i1 %cmp2, label %if.then, label %if.end

if.then:                                          ; preds = %while.body
  %call.i.i = tail call noundef i32 @sched_yield() #23
  br label %if.end

if.end:                                           ; preds = %if.then, %while.body
  %count.1 = phi i32 [ 0, %if.then ], [ %inc, %while.body ]
  %1 = load atomic i32, ptr %inFlight seq_cst, align 4
  %cmp = icmp sgt i32 %1, 0
  br i1 %cmp, label %while.body, label %while.end, !llvm.loop !4

while.end:                                        ; preds = %if.end, %entry
  ret void
}